; Function Attrs: mustprogress uwtable
define noundef i32 @uidna_nameToUnicode_77(ptr noundef %0, ptr noundef %1, i32 noundef %2, ptr noundef %3, i32 noundef %4, ptr noundef %5, ptr noundef %6) local_unnamed_addr #1 personality ptr @__gxx_personality_v0 {
  %8 = alloca %"class.icu_77::UnicodeString", align 8
  %9 = alloca %"class.icu_77::ConstChar16Ptr", align 8
  %10 = alloca %"class.icu_77::UnicodeString", align 8
  %11 = alloca %"class.icu_77::IDNAInfo", align 4
  %12 = alloca %"class.icu_77::Char16Ptr", align 8
  %13 = load i32, ptr %6, align 4, !tbaa !13
  %14 = icmp slt i32 %13, 1
  br i1 %14, label %15, label %_ZL9checkArgsPKviPviP9UIDNAInfoP10UErrorCode.exit.thread

15:                                               ; preds = %7
  %16 = icmp eq ptr %5, null
  br i1 %16, label %20, label %17

17:                                               ; preds = %15
  %18 = load i16, ptr %5, align 4, !tbaa !46
  %19 = icmp slt i16 %18, 16
  br i1 %19, label %20, label %21

20:                                               ; preds = %17, %15
  store i32 1, ptr %6, align 4, !tbaa !13
  br label %_ZL9checkArgsPKviPviP9UIDNAInfoP10UErrorCode.exit.thread

21:                                               ; preds = %17
  %22 = icmp eq ptr %1, null
  br i1 %22, label %23, label %24

23:                                               ; preds = %21
  %.not18.i = icmp eq i32 %2, 0
  br i1 %.not18.i, label %26, label %34

24:                                               ; preds = %21
  %25 = icmp slt i32 %2, -1
  br i1 %25, label %34, label %26

26:                                               ; preds = %24, %23
  %27 = icmp eq ptr %3, null
  br i1 %27, label %28, label %29

28:                                               ; preds = %26
  %.not19.i = icmp eq i32 %4, 0
  br i1 %.not19.i, label %31, label %34

29:                                               ; preds = %26
  %30 = icmp slt i32 %4, 0
  br i1 %30, label %34, label %31

31:                                               ; preds = %29, %28
  %32 = icmp eq ptr %3, %1
  %33 = icmp ne ptr %1, null
  %or.cond.i = and i1 %33, %32
  br i1 %or.cond.i, label %34, label %35

34:                                               ; preds = %31, %29, %28, %24, %23
  store i32 1, ptr %6, align 4, !tbaa !13
  br label %_ZL9checkArgsPKviPviP9UIDNAInfoP10UErrorCode.exit.thread

35:                                               ; preds = %31
  %36 = getelementptr inbounds nuw i8, ptr %5, i64 2
  %37 = zext nneg i16 %18 to i64
  %38 = add nsw i64 %37, -2
  tail call void @llvm.memset.p0.i64(ptr nonnull align 2 %36, i8 0, i64 %38, i1 false)
  call void @llvm.lifetime.start.p0(i64 64, ptr nonnull %8) #17
  %.lobit = lshr i32 %2, 31
  %39 = trunc nuw nsw i32 %.lobit to i8
  store ptr %1, ptr %9, align 8, !tbaa !49
  invoke void @_ZN6icu_7713UnicodeStringC1EaNS_14ConstChar16PtrEi(ptr noundef nonnull align 8 dereferenceable(64) %8, i8 noundef signext %39, ptr noundef nonnull %9, i32 noundef %2)
          to label %40 unwind label %54

40:                                               ; preds = %35
  %41 = load ptr, ptr %9, align 8, !tbaa !49
  call void asm sideeffect "", "rm,~{memory},~{dirflag},~{fpsr},~{flags}"(ptr %41) #17, !srcloc !52
  call void @llvm.lifetime.start.p0(i64 64, ptr nonnull %10) #17
  invoke void @_ZN6icu_7713UnicodeStringC1EPDsii(ptr noundef nonnull align 8 dereferenceable(64) %10, ptr noundef %3, i32 noundef 0, i32 noundef %4)
          to label %42 unwind label %57

42:                                               ; preds = %40
  call void @llvm.lifetime.start.p0(i64 12, ptr nonnull %11) #17
  %43 = getelementptr inbounds nuw i8, ptr %11, i64 10
  call void @llvm.memset.p0.i64(ptr noundef nonnull align 4 dereferenceable(11) %11, i8 0, i64 10, i1 false)
  store i8 1, ptr %43, align 2, !tbaa !24
  %44 = load ptr, ptr %0, align 8, !tbaa !15
  %45 = getelementptr inbounds nuw i8, ptr %44, i64 48
  %46 = load ptr, ptr %45, align 8
  %47 = invoke noundef nonnull align 8 dereferenceable(64) ptr %46(ptr noundef nonnull align 8 dereferenceable(8) %0, ptr noundef nonnull align 8 dereferenceable(64) %8, ptr noundef nonnull align 8 dereferenceable(64) %10, ptr noundef nonnull align 4 dereferenceable(11) %11, ptr noundef nonnull align 4 dereferenceable(4) %6)
          to label %48 unwind label %59

48:                                               ; preds = %42
  %.val = load i32, ptr %11, align 4, !tbaa !26
  %49 = getelementptr inbounds nuw i8, ptr %11, i64 8
  %.val26 = load i8, ptr %49, align 4, !tbaa !37
  store i8 %.val26, ptr %36, align 2, !tbaa !53
  %50 = getelementptr inbounds nuw i8, ptr %5, i64 4
  store i32 %.val, ptr %50, align 4, !tbaa !54
  store ptr %3, ptr %12, align 8, !tbaa !55
  %51 = invoke noundef i32 @_ZNK6icu_7713UnicodeString7extractENS_9Char16PtrEiR10UErrorCode(ptr noundef nonnull align 8 dereferenceable(64) %10, ptr noundef nonnull %12, i32 noundef %4, ptr noundef nonnull align 4 dereferenceable(4) %6)
          to label %52 unwind label %61

52:                                               ; preds = %48
  %53 = load ptr, ptr %12, align 8, !tbaa !55
  call void asm sideeffect "", "rm,~{memory},~{dirflag},~{fpsr},~{flags}"(ptr %53) #17, !srcloc !57
  call void @llvm.lifetime.end.p0(i64 12, ptr nonnull %11) #17
  call void @_ZN6icu_7713UnicodeStringD1Ev(ptr noundef nonnull align 8 dereferenceable(64) %10) #17
  call void @llvm.lifetime.end.p0(i64 64, ptr nonnull %10) #17
  call void @_ZN6icu_7713UnicodeStringD1Ev(ptr noundef nonnull align 8 dereferenceable(64) %8) #17
  call void @llvm.lifetime.end.p0(i64 64, ptr nonnull %8) #17
  br label %_ZL9checkArgsPKviPviP9UIDNAInfoP10UErrorCode.exit.thread

54:                                               ; preds = %35
  %55 = landingpad { ptr, i32 }
          cleanup
  %56 = load ptr, ptr %9, align 8, !tbaa !49
  call void asm sideeffect "", "rm,~{memory},~{dirflag},~{fpsr},~{flags}"(ptr %56) #17, !srcloc !52
  br label %66

57:                                               ; preds = %40
  %58 = landingpad { ptr, i32 }
          cleanup
  br label %65

59:                                               ; preds = %42
  %60 = landingpad { ptr, i32 }
          cleanup
  br label %64

61:                                               ; preds = %48
  %62 = landingpad { ptr, i32 }
          cleanup
  %63 = load ptr, ptr %12, align 8, !tbaa !55
  call void asm sideeffect "", "rm,~{memory},~{dirflag},~{fpsr},~{flags}"(ptr %63) #17, !srcloc !57
  br label %64

64:                                               ; preds = %61, %59
  %.pn = phi { ptr, i32 } [ %62, %61 ], [ %60, %59 ]
  call void @llvm.lifetime.end.p0(i64 12, ptr nonnull %11) #17
  call void @_ZN6icu_7713UnicodeStringD1Ev(ptr noundef nonnull align 8 dereferenceable(64) %10) #17
  br label %65

65:                                               ; preds = %64, %57
  %.pn.pn = phi { ptr, i32 } [ %.pn, %64 ], [ %58, %57 ]
  call void @llvm.lifetime.end.p0(i64 64, ptr nonnull %10) #17
  call void @_ZN6icu_7713UnicodeStringD1Ev(ptr noundef nonnull align 8 dereferenceable(64) %8) #17
  br label %66

66:                                               ; preds = %65, %54
  %.pn.pn.pn = phi { ptr, i32 } [ %.pn.pn, %65 ], [ %55, %54 ]
  call void @llvm.lifetime.end.p0(i64 64, ptr nonnull %8) #17
  resume { ptr, i32 } %.pn.pn.pn

_ZL9checkArgsPKviPviP9UIDNAInfoP10UErrorCode.exit.thread: ; preds = %7, %34, %20, %52
  %.022 = phi i32 [ %51, %52 ], [ 0, %20 ], [ 0, %34 ], [ 0, %7 ]
  ret i32 %.022
}